target datalayout = "e-m:e-p270:32:32-p271:32:32-p272:64:64-i64:64-i128:128-f80:128-n8:16:32:64-S128"
target triple = "x86_64-unknown-linux-gnu"

%"class.icu_75::MessageFormat" = type { %"class.icu_75::Format.base", [6 x i8], %"class.icu_75::Locale", %"class.icu_75::MessagePattern", ptr, i32, ptr, i32, i32, i8, ptr, ptr, ptr, ptr, %"class.icu_75::MessageFormat::PluralSelectorProvider", %"class.icu_75::MessageFormat::PluralSelectorProvider" }
%"class.icu_75::Format.base" = type <{ %"class.icu_75::UObject", [157 x i8], [157 x i8] }>
%"class.icu_75::UObject" = type { ptr }
%"class.icu_75::Locale" = type <{ %"class.icu_75::UObject", [12 x i8], [6 x i8], [4 x i8], [2 x i8], i32, [4 x i8], ptr, [157 x i8], [3 x i8], ptr, i8, [7 x i8] }>
%"class.icu_75::MessagePattern" = type <{ %"class.icu_75::UObject", i32, [4 x i8], %"class.icu_75::UnicodeString", ptr, ptr, i32, [4 x i8], ptr, ptr, i32, i8, i8, i8, i8 }>
%"class.icu_75::UnicodeString" = type { %"class.icu_75::Replaceable", %"union.icu_75::UnicodeString::StackBufferOrFields" }
%"class.icu_75::Replaceable" = type { %"class.icu_75::UObject" }
%"union.icu_75::UnicodeString::StackBufferOrFields" = type { %struct.anon.0, [32 x i8] }
%struct.anon.0 = type { i16, i32, i32, ptr }
%"class.icu_75::MessageFormat::PluralSelectorProvider" = type <{ %"class.icu_75::PluralFormat::PluralSelector", ptr, ptr, i32, [4 x i8] }>
%"class.icu_75::PluralFormat::PluralSelector" = type { ptr }

; Function Attrs: mustprogress nounwind uwtable
define void @_ZN6icu_7513MessageFormat22PluralSelectorProvider5resetEv(ptr noundef nonnull align 8 dereferenceable(28) %this) #0 align 2 {
entry:
  %this.addr = alloca ptr, align 8
  store ptr %this, ptr %this.addr, align 8
  %this1 = load ptr, ptr %this.addr, align 8
  %rules = getelementptr inbounds %"class.icu_75::MessageFormat::PluralSelectorProvider", ptr %this1, i32 0, i32 2
  %0 = load ptr, ptr %rules, align 8
  %isnull = icmp eq ptr %0, null
  br i1 %isnull, label %delete.end, label %delete.notnull

delete.notnull:                                   ; preds = %entry
  %vtable = load ptr, ptr %0, align 8
  %vfn = getelementptr inbounds ptr, ptr %vtable, i64 1
  %1 = load ptr, ptr %vfn, align 8
  call void %1(ptr noundef nonnull align 8 dereferenceable(28) %0) #11
  br label %delete.end

delete.end:                                       ; preds = %delete.notnull, %entry
  %rules2 = getelementptr inbounds %"class.icu_75::MessageFormat::PluralSelectorProvider", ptr %this1, i32 0, i32 2
  store ptr null, ptr %rules2, align 8
  ret void
}

; Function Attrs: mustprogress nounwind uwtable
define linkonce_odr noundef ptr @_ZNK6icu_756Locale7getNameEv(ptr noundef nonnull align 8 dereferenceable(217) %this) #0 comdat align 2 {
entry:
  %this.addr = alloca ptr, align 8
  store ptr %this, ptr %this.addr, align 8
  %this1 = load ptr, ptr %this.addr, align 8
  %fullName = getelementptr inbounds %"class.icu_75::Locale", ptr %this1, i32 0, i32 7
  %0 = load ptr, ptr %fullName, align 8
  ret ptr %0
}

; Function Attrs: mustprogress uwtable
define linkonce_odr noundef zeroext i1 @_ZNK6icu_756LocaleneERKS0_(ptr noundef nonnull align 8 dereferenceable(217) %this, ptr noundef nonnull align 8 dereferenceable(217) %other) #1 comdat align 2 {
entry:
  %this.addr = alloca ptr, align 8
  %other.addr = alloca ptr, align 8
  store ptr %this, ptr %this.addr, align 8
  store ptr %other, ptr %other.addr, align 8
  %this1 = load ptr, ptr %this.addr, align 8
  %0 = load ptr, ptr %other.addr, align 8
  %call = call noundef zeroext i1 @_ZNK6icu_756LocaleeqERKS0_(ptr noundef nonnull align 8 dereferenceable(217) %this1, ptr noundef nonnull align 8 dereferenceable(217) %0)
  %lnot = xor i1 %call, true
  ret i1 %lnot
}

; Function Attrs: mustprogress uwtable
define void @_ZN6icu_7513MessageFormat9setLocaleERKNS_6LocaleE(ptr noundef nonnull align 8 dereferenceable(816) %this, ptr noundef nonnull align 8 dereferenceable(217) %theLocale) unnamed_addr #1 align 2 {
entry:
  %this.addr = alloca ptr, align 8
  %theLocale.addr = alloca ptr, align 8
  store ptr %this, ptr %this.addr, align 8
  store ptr %theLocale, ptr %theLocale.addr, align 8
  %this1 = load ptr, ptr %this.addr, align 8
  %fLocale = getelementptr inbounds %"class.icu_75::MessageFormat", ptr %this1, i32 0, i32 2
  %0 = load ptr, ptr %theLocale.addr, align 8
  %call = call noundef zeroext i1 @_ZNK6icu_756LocaleneERKS0_(ptr noundef nonnull align 8 dereferenceable(217) %fLocale, ptr noundef nonnull align 8 dereferenceable(217) %0)
  br i1 %call, label %if.then, label %if.end

if.then:                                          ; preds = %entry
  %defaultNumberFormat = getelementptr inbounds %"class.icu_75::MessageFormat", ptr %this1, i32 0, i32 10
  %1 = load ptr, ptr %defaultNumberFormat, align 8
  %isnull = icmp eq ptr %1, null
  br i1 %isnull, label %delete.end, label %delete.notnull

delete.notnull:                                   ; preds = %if.then
  %vtable = load ptr, ptr %1, align 8
  %vfn = getelementptr inbounds ptr, ptr %vtable, i64 1
  %2 = load ptr, ptr %vfn, align 8
  call void %2(ptr noundef nonnull align 8 dereferenceable(356) %1) #11
  br label %delete.end

delete.end:                                       ; preds = %delete.notnull, %if.then
  %defaultNumberFormat2 = getelementptr inbounds %"class.icu_75::MessageFormat", ptr %this1, i32 0, i32 10
  store ptr null, ptr %defaultNumberFormat2, align 8
  %defaultDateFormat = getelementptr inbounds %"class.icu_75::MessageFormat", ptr %this1, i32 0, i32 11
  %3 = load ptr, ptr %defaultDateFormat, align 8
  %isnull3 = icmp eq ptr %3, null
  br i1 %isnull3, label %delete.end7, label %delete.notnull4

delete.notnull4:                                  ; preds = %delete.end
  %vtable5 = load ptr, ptr %3, align 8
  %vfn6 = getelementptr inbounds ptr, ptr %vtable5, i64 1
  %4 = load ptr, ptr %vfn6, align 8
  call void %4(ptr noundef nonnull align 8 dereferenceable(352) %3) #11
  br label %delete.end7

delete.end7:                                      ; preds = %delete.notnull4, %delete.end
  %defaultDateFormat8 = getelementptr inbounds %"class.icu_75::MessageFormat", ptr %this1, i32 0, i32 11
  store ptr null, ptr %defaultDateFormat8, align 8
  %5 = load ptr, ptr %theLocale.addr, align 8
  %fLocale9 = getelementptr inbounds %"class.icu_75::MessageFormat", ptr %this1, i32 0, i32 2
  %call10 = call noundef nonnull align 8 dereferenceable(217) ptr @_ZN6icu_756LocaleaSERKS0_(ptr noundef nonnull align 8 dereferenceable(217) %fLocale9, ptr noundef nonnull align 8 dereferenceable(217) %5)
  %fLocale11 = getelementptr inbounds %"class.icu_75::MessageFormat", ptr %this1, i32 0, i32 2
  %call12 = call noundef ptr @_ZNK6icu_756Locale7getNameEv(ptr noundef nonnull align 8 dereferenceable(217) %fLocale11)
  %fLocale13 = getelementptr inbounds %"class.icu_75::MessageFormat", ptr %this1, i32 0, i32 2
  %call14 = call noundef ptr @_ZNK6icu_756Locale7getNameEv(ptr noundef nonnull align 8 dereferenceable(217) %fLocale13)
  call void @_ZN6icu_756Format12setLocaleIDsEPKcS2_(ptr noundef nonnull align 8 dereferenceable(322) %this1, ptr noundef %call12, ptr noundef %call14)
  %pluralProvider = getelementptr inbounds %"class.icu_75::MessageFormat", ptr %this1, i32 0, i32 14
  call void @_ZN6icu_7513MessageFormat22PluralSelectorProvider5resetEv(ptr noundef nonnull align 8 dereferenceable(28) %pluralProvider)
  %ordinalProvider = getelementptr inbounds %"class.icu_75::MessageFormat", ptr %this1, i32 0, i32 15
  call void @_ZN6icu_7513MessageFormat22PluralSelectorProvider5resetEv(ptr noundef nonnull align 8 dereferenceable(28) %ordinalProvider)
  br label %if.end

if.end:                                           ; preds = %delete.end7, %entry
  ret void
}