; Function Attrs: mustprogress uwtable
define void @_ZN6icu_7513MessageFormat9setLocaleERKNS_6LocaleE(ptr noundef nonnull align 8 dereferenceable(816) %this, ptr noundef nonnull align 8 dereferenceable(217) %theLocale) unnamed_addr #1 align 2 {
entry:
  %fLocale = getelementptr inbounds i8, ptr %this, i64 328
  %call.i = tail call noundef zeroext i1 @_ZNK6icu_756LocaleeqERKS0_(ptr noundef nonnull align 8 dereferenceable(217) %fLocale, ptr noundef nonnull align 8 dereferenceable(217) %theLocale)
  br i1 %call.i, label %if.end, label %if.then

if.then:                                          ; preds = %entry
  %defaultNumberFormat = getelementptr inbounds i8, ptr %this, i64 720
  %0 = load ptr, ptr %defaultNumberFormat, align 8
  %isnull = icmp eq ptr %0, null
  br i1 %isnull, label %delete.end, label %delete.notnull

delete.notnull:                                   ; preds = %if.then
  %vtable = load ptr, ptr %0, align 8
  %vfn = getelementptr inbounds i8, ptr %vtable, i64 8
  %1 = load ptr, ptr %vfn, align 8
  tail call void %1(ptr noundef nonnull align 8 dereferenceable(356) %0) #19
  br label %delete.end

delete.end:                                       ; preds = %delete.notnull, %if.then
  store ptr null, ptr %defaultNumberFormat, align 8
  %defaultDateFormat = getelementptr inbounds i8, ptr %this, i64 728
  %2 = load ptr, ptr %defaultDateFormat, align 8
  %isnull3 = icmp eq ptr %2, null
  br i1 %isnull3, label %delete.end7, label %delete.notnull4

delete.notnull4:                                  ; preds = %delete.end
  %vtable5 = load ptr, ptr %2, align 8
  %vfn6 = getelementptr inbounds i8, ptr %vtable5, i64 8
  %3 = load ptr, ptr %vfn6, align 8
  tail call void %3(ptr noundef nonnull align 8 dereferenceable(352) %2) #19
  br label %delete.end7

delete.end7:                                      ; preds = %delete.notnull4, %delete.end
  store ptr null, ptr %defaultDateFormat, align 8
  %call10 = tail call noundef nonnull align 8 dereferenceable(217) ptr @_ZN6icu_756LocaleaSERKS0_(ptr noundef nonnull align 8 dereferenceable(217) %fLocale, ptr noundef nonnull align 8 dereferenceable(217) %theLocale)
  %fullName.i = getelementptr inbounds i8, ptr %this, i64 368
  %4 = load ptr, ptr %fullName.i, align 8
  tail call void @_ZN6icu_756Format12setLocaleIDsEPKcS2_(ptr noundef nonnull align 8 dereferenceable(322) %this, ptr noundef %4, ptr noundef %4)
  %rules.i = getelementptr inbounds i8, ptr %this, i64 768
  %5 = load ptr, ptr %rules.i, align 8
  %isnull.i = icmp eq ptr %5, null
  br i1 %isnull.i, label %_ZN6icu_7513MessageFormat22PluralSelectorProvider5resetEv.exit, label %delete.notnull.i

delete.notnull.i:                                 ; preds = %delete.end7
  %vtable.i = load ptr, ptr %5, align 8
  %vfn.i = getelementptr inbounds i8, ptr %vtable.i, i64 8
  %6 = load ptr, ptr %vfn.i, align 8
  tail call void %6(ptr noundef nonnull align 8 dereferenceable(28) %5) #19
  br label %_ZN6icu_7513MessageFormat22PluralSelectorProvider5resetEv.exit

_ZN6icu_7513MessageFormat22PluralSelectorProvider5resetEv.exit: ; preds = %delete.end7, %delete.notnull.i
  store ptr null, ptr %rules.i, align 8
  %rules.i4 = getelementptr inbounds i8, ptr %this, i64 800
  %7 = load ptr, ptr %rules.i4, align 8
  %isnull.i5 = icmp eq ptr %7, null
  br i1 %isnull.i5, label %_ZN6icu_7513MessageFormat22PluralSelectorProvider5resetEv.exit9, label %delete.notnull.i6

delete.notnull.i6:                                ; preds = %_ZN6icu_7513MessageFormat22PluralSelectorProvider5resetEv.exit
  %vtable.i7 = load ptr, ptr %7, align 8
  %vfn.i8 = getelementptr inbounds i8, ptr %vtable.i7, i64 8
  %8 = load ptr, ptr %vfn.i8, align 8
  tail call void %8(ptr noundef nonnull align 8 dereferenceable(28) %7) #19
  br label %_ZN6icu_7513MessageFormat22PluralSelectorProvider5resetEv.exit9

_ZN6icu_7513MessageFormat22PluralSelectorProvider5resetEv.exit9: ; preds = %_ZN6icu_7513MessageFormat22PluralSelectorProvider5resetEv.exit, %delete.notnull.i6
  store ptr null, ptr %rules.i4, align 8
  br label %if.end

if.end:                                           ; preds = %_ZN6icu_7513MessageFormat22PluralSelectorProvider5resetEv.exit9, %entry
  ret void
}